Certificate:
    Data:
        Version: 3 (0x2)
        Serial Number:
            f9:74:3f:c9:1c:3b:d6:49:22:c5:dd:21:6e:b9:f6:a0
    Signature Algorithm: sha256WithRSAEncryption
        Issuer: CN=tessi
        Validity
            Not Before: Mar 10 09:40:42 2020 GMT
            Not After : Mar  8 09:40:42 2030 GMT
        Subject: CN=tessiclient
        Subject Public Key Info:
            Public Key Algorithm: rsaEncryption
                Public-Key: (2048 bit)
                Modulus:
                    00:ed:f3:f2:bb:3e:aa:8e:8c:86:49:82:bd:54:26:
                    11:27:2c:04:a2:b6:39:c1:01:3d:e0:cc:46:f6:8a:
                    a5:b8:76:9f:b2:25:0f:f5:0d:7c:d6:f6:d6:36:5f:
                    75:aa:09:2f:69:00:03:53:ff:51:de:e6:f9:5e:15:
                    3e:2f:3c:c9:36:13:81:20:2b:cc:74:ac:b0:a4:24:
                    d7:4e:31:8b:46:33:88:eb:dc:b3:d0:60:7a:ba:b4:
                    5a:d2:cf:c7:68:76:62:54:42:0f:d2:2b:95:25:ee:
                    ed:c1:e6:d0:e2:46:79:36:62:47:b0:b7:d7:d4:f6:
                    5d:6c:a6:81:90:4e:c8:73:58:c4:6a:a7:bd:b0:8f:
                    10:e2:30:d6:08:74:17:d8:12:2e:64:d1:57:b7:09:
                    05:40:b9:b7:af:01:f3:2a:02:b0:ea:b9:2d:97:dc:
                    09:1f:f5:22:e6:9e:fc:14:f4:7b:b5:b6:87:a2:e2:
                    ca:77:3d:8c:1d:e3:26:94:d0:54:f6:8f:7a:10:ba:
                    b6:6f:3f:0b:2b:f2:2f:08:f9:c1:e8:b8:ad:61:f7:
                    4d:1a:62:5d:60:eb:16:90:1a:1b:00:21:8e:7e:bb:
                    10:55:92:ce:b7:53:5c:db:f6:12:74:18:23:d4:b2:
                    d4:c0:35:ed:9e:0a:bc:69:85:2d:d0:76:64:4b:e1:
                    d7:2b
                Exponent: 65537 (0x10001)
        X509v3 extensions:
            X509v3 Basic Constraints: 
                CA:FALSE
            X509v3 Subject Key Identifier: 
                69:EF:FB:28:24:51:4B:EC:AD:E1:FC:CA:B1:86:76:8F:ED:B7:F1:7E
            X509v3 Authority Key Identifier: 
                keyid:B8:39:C2:42:FB:5B:B8:F5:ED:D9:0D:E6:DA:50:37:30:21:68:E6:A8
                DirName:/CN=tessi
                serial:E9:62:D8:96:8F:2F:96:6A

            X509v3 Extended Key Usage: 
                TLS Web Client Authentication
            X509v3 Key Usage: 
                Digital Signature
    Signature Algorithm: sha256WithRSAEncryption
         09:b6:aa:14:ef:fb:be:d3:5b:4b:79:b6:81:1c:3a:15:a7:9e:
         2f:a5:46:46:71:56:2a:9a:40:20:ad:be:7a:67:b4:71:01:90:
         ca:55:5b:e6:46:bd:a7:48:ae:b0:b0:eb:7c:57:4c:99:6d:c7:
         23:b5:0e:02:e4:f0:c5:80:c2:4c:12:cb:72:ef:25:7e:b1:cc:
         98:7e:10:67:a2:18:33:37:cc:fb:3c:f3:7b:bf:bf:df:82:27:
         32:86:93:10:64:cc:05:63:fc:5c:29:8e:7e:89:95:76:42:d2:
         80:9b:5b:78:19:4d:de:01:fb:fa:77:43:47:03:23:6d:11:bf:
         14:fe:17:02:e0:da:b7:4b:a9:b5:09:71:fd:89:ee:93:62:6c:
         e7:99:8d:c1:ac:27:fb:6b:47:62:f0:49:dd:25:50:2b:a5:1c:
         eb:1b:c4:05:61:68:48:7f:89:08:7a:b2:7d:16:0b:9d:d5:e2:
         20:8c:dd:4c:50:d5:c5:1a:4f:5e:83:e9:ed:7a:29:f5:44:c0:
         ca:91:85:52:ab:c9:14:13:d6:73:d9:7a:0e:4b:d8:96:ba:54:
         05:bf:e1:35:eb:b6:3b:91:e1:d3:78:10:b8:ef:9d:bc:cb:ba:
         03:ab:8e:cb:f7:3b:a2:47:90:da:3d:47:b9:cb:29:8f:4e:04:
         fe:59:a5:9d
-----BEGIN CERTIFICATE-----
MIIDQzCCAiugAwIBAgIRAPl0P8kcO9ZJIsXdIW659qAwDQYJKoZIhvcNAQELBQAw
EDEOMAwGA1UEAwwFdGVzc2kwHhcNMjAwMzEwMDk0MDQyWhcNMzAwMzA4MDk0MDQy
WjAWMRQwEgYDVQQDDAt0ZXNzaWNsaWVudDCCASIwDQYJKoZIhvcNAQEBBQADggEP
ADCCAQoCggEBAO3z8rs+qo6MhkmCvVQmEScsBKK2OcEBPeDMRvaKpbh2n7IlD/UN
fNb21jZfdaoJL2kAA1P/Ud7m+V4VPi88yTYTgSArzHSssKQk104xi0YziOvcs9Bg
erq0WtLPx2h2YlRCD9IrlSXu7cHm0OJGeTZiR7C319T2XWymgZBOyHNYxGqnvbCP
EOIw1gh0F9gSLmTRV7cJBUC5t68B8yoCsOq5LZfcCR/1Iuae/BT0e7W2h6Liync9
jB3jJpTQVPaPehC6tm8/CyvyLwj5wei4rWH3TRpiXWDrFpAaGwAhjn67EFWSzrdT
XNv2EnQYI9Sy1MA17Z4KvGmFLdB2ZEvh1ysCAwEAAaOBkTCBjjAJBgNVHRMEAjAA
MB0GA1UdDgQWBBRp7/soJFFL7K3h/MqxhnaP7bfxfjBABgNVHSMEOTA3gBS4OcJC
+1u49e3ZDebaUDcwIWjmqKEUpBIwEDEOMAwGA1UEAwwFdGVzc2mCCQDpYtiWjy+W
ajATBgNVHSUEDDAKBggrBgEFBQcDAjALBgNVHQ8EBAMCB4AwDQYJKoZIhvcNAQEL
BQADggEBAAm2qhTv+77TW0t5toEcOhWnni+lRkZxViqaQCCtvnpntHEBkMpVW+ZG
vadIrrCw63xXTJltxyO1DgLk8MWAwkwSy3LvJX6xzJh+EGeiGDM3zPs883u/v9+C
JzKGkxBkzAVj/Fwpjn6JlXZC0oCbW3gZTd4B+/p3Q0cDI20RvxT+FwLg2rdLqbUJ
cf2J7pNibOeZjcGsJ/trR2LwSd0lUCulHOsbxAVhaEh/iQh6sn0WC53V4iCM3UxQ
1cUaT16D6e16KfVEwMqRhVKryRQT1nPZeg5L2Ja6VAW/4TXrtjuR4dN4ELjvnbzL
ugOrjsv3O6JHkNo9R7nLKY9OBP5ZpZ0=
-----END CERTIFICATE-----
