Certificate:
    Data:
        Version: 3 (0x2)
        Serial Number:
            73:06:52:f0:65:4e:28:d2:94:f6:f8:71:d9:51:a9:72
        Signature Algorithm: sha256WithRSAEncryption
        Issuer: CN=Easy-RSA CA
        Validity
            Not Before: Feb 11 19:00:47 2021 GMT
            Not After : May 17 19:00:47 2023 GMT
        Subject: CN=users
        Subject Public Key Info:
            Public Key Algorithm: rsaEncryption
                RSA Public-Key: (2048 bit)
                Modulus:
                    00:ef:3a:2d:80:2d:3c:bc:f5:1d:9b:ce:df:30:9f:
                    fc:3b:e6:f2:d8:25:db:a1:31:64:77:c9:a2:9d:0f:
                    d4:ca:de:ed:d6:30:29:3b:60:13:72:70:f6:c7:c9:
                    52:fb:c6:95:07:2e:02:da:ea:2d:41:76:67:ec:60:
                    b0:a3:2f:72:21:2f:bf:22:b9:31:2d:7a:e8:2d:30:
                    a6:8c:75:86:6c:e7:23:52:25:ef:88:2d:66:ca:42:
                    fb:ad:2e:87:07:da:30:6b:15:40:eb:93:fa:05:16:
                    25:da:ce:9f:6a:f8:c3:de:63:64:f7:c2:fb:57:e0:
                    bd:83:1d:33:ec:4e:bc:cc:2b:1c:b9:89:d2:52:cf:
                    41:40:da:ef:0e:61:4c:ff:9c:17:3a:5a:4b:a9:0d:
                    25:67:95:f1:b9:eb:5d:9d:1d:fa:1a:af:12:27:a0:
                    85:38:b0:96:d4:51:47:25:0a:28:ce:53:af:7d:fb:
                    05:10:56:ee:ba:47:36:14:2e:71:ee:e1:7f:6c:63:
                    3e:8b:1f:36:cd:36:1f:91:2c:ee:eb:ef:2d:bd:b3:
                    58:3f:ce:ce:ba:df:20:8e:23:d6:c6:e6:82:45:2c:
                    f7:74:17:f9:f2:4f:01:ef:c1:2e:27:5f:ed:ec:da:
                    bc:bc:10:10:5a:4f:06:1e:a0:6a:5e:ab:01:45:33:
                    7f:b7
                Exponent: 65537 (0x10001)
        X509v3 extensions:
            X509v3 Basic Constraints: 
                CA:FALSE
            X509v3 Subject Key Identifier: 
                D1:7A:56:24:51:F0:21:69:5E:90:FD:68:CC:CC:9A:B0:C0:07:8A:46
            X509v3 Authority Key Identifier: 
                keyid:EA:A2:3A:6D:B1:36:06:72:71:78:56:54:41:FD:07:A6:4C:19:2E:54
                DirName:/CN=Easy-RSA CA
                serial:39:45:CA:49:71:8A:9E:9C:3F:43:00:72:B3:10:FE:0F:B0:95:D4:4F

            X509v3 Extended Key Usage: 
                TLS Web Client Authentication
            X509v3 Key Usage: 
                Digital Signature
    Signature Algorithm: sha256WithRSAEncryption
         39:08:1f:79:a4:02:45:b4:9b:3a:00:93:b9:c1:df:3f:5d:66:
         79:0b:62:44:b2:70:98:9a:cd:84:e2:b9:43:cc:53:ed:ec:54:
         03:96:bc:f1:ff:54:5c:e1:33:d1:db:1a:9c:47:67:76:09:5c:
         15:4c:bd:10:c1:b7:3e:13:5b:2a:ea:3d:4d:cb:e9:8d:43:50:
         ab:a4:d4:8f:d0:1b:98:2c:2c:bc:c2:82:15:fa:e2:eb:ba:8c:
         18:40:7a:c4:a5:2d:43:51:ef:89:87:6a:1e:e6:b7:f1:b0:e7:
         21:88:b8:e5:f9:d9:de:4f:3f:d1:a3:3d:0f:06:21:c5:02:ab:
         04:87:56:f8:42:02:ad:c6:49:2f:c1:e4:36:19:d4:ff:76:4e:
         f7:c4:0d:d7:9a:91:b9:31:34:d3:d3:d2:55:f3:09:21:51:93:
         84:8e:fb:45:56:c0:77:c6:38:1b:d1:bc:97:9f:af:fa:c0:fd:
         19:54:2e:b5:a6:cf:fd:91:03:07:9d:f3:ae:2b:ce:7d:9b:1e:
         e9:44:b4:df:fd:4f:97:a2:b7:59:45:f2:88:7b:d2:fa:10:23:
         d6:c3:f6:87:b8:9a:c7:0c:bb:38:ba:bb:91:07:97:1d:54:bf:
         55:5a:a4:2d:b6:5b:c4:69:d6:48:3c:26:d2:df:f9:e6:b3:c5:
         8d:f8:ca:71
-----BEGIN CERTIFICATE-----
MIIDUzCCAjugAwIBAgIQcwZS8GVOKNKU9vhx2VGpcjANBgkqhkiG9w0BAQsFADAW
MRQwEgYDVQQDDAtFYXN5LVJTQSBDQTAeFw0yMTAyMTExOTAwNDdaFw0yMzA1MTcx
OTAwNDdaMBAxDjAMBgNVBAMMBXVzZXJzMIIBIjANBgkqhkiG9w0BAQEFAAOCAQ8A
MIIBCgKCAQEA7zotgC08vPUdm87fMJ/8O+by2CXboTFkd8minQ/Uyt7t1jApO2AT
cnD2x8lS+8aVBy4C2uotQXZn7GCwoy9yIS+/IrkxLXroLTCmjHWGbOcjUiXviC1m
ykL7rS6HB9owaxVA65P6BRYl2s6favjD3mNk98L7V+C9gx0z7E68zCscuYnSUs9B
QNrvDmFM/5wXOlpLqQ0lZ5XxuetdnR36Gq8SJ6CFOLCW1FFHJQoozlOvffsFEFbu
ukc2FC5x7uF/bGM+ix82zTYfkSzu6+8tvbNYP87Out8gjiPWxuaCRSz3dBf58k8B
78EuJ1/t7Nq8vBAQWk8GHqBqXqsBRTN/twIDAQABo4GiMIGfMAkGA1UdEwQCMAAw
HQYDVR0OBBYEFNF6ViRR8CFpXpD9aMzMmrDAB4pGMFEGA1UdIwRKMEiAFOqiOm2x
NgZycXhWVEH9B6ZMGS5UoRqkGDAWMRQwEgYDVQQDDAtFYXN5LVJTQSBDQYIUOUXK
SXGKnpw/QwBysxD+D7CV1E8wEwYDVR0lBAwwCgYIKwYBBQUHAwIwCwYDVR0PBAQD
AgeAMA0GCSqGSIb3DQEBCwUAA4IBAQA5CB95pAJFtJs6AJO5wd8/XWZ5C2JEsnCY
ms2E4rlDzFPt7FQDlrzx/1Rc4TPR2xqcR2d2CVwVTL0Qwbc+E1sq6j1Ny+mNQ1Cr
pNSP0BuYLCy8woIV+uLruowYQHrEpS1DUe+Jh2oe5rfxsOchiLjl+dneTz/Roz0P
BiHFAqsEh1b4QgKtxkkvweQ2GdT/dk73xA3XmpG5MTTT09JV8wkhUZOEjvtFVsB3
xjgb0byXn6/6wP0ZVC61ps/9kQMHnfOuK859mx7pRLTf/U+XordZRfKIe9L6ECPW
w/aHuJrHDLs4uruRB5cdVL9VWqQttlvEadZIPCbS3/nms8WN+Mpx
-----END CERTIFICATE-----
